target datalayout = "e-m:e-p270:32:32-p271:32:32-p272:64:64-i64:64-i128:128-f80:128-n8:16:32:64-S128"
target triple = "x86_64-pc-linux-gnu"

%"struct.Imf_3_4::PreviewRgba" = type { i8, i8, i8, i8 }
%"class.Imf_3_4::PreviewImage" = type { i32, i32, ptr }

@.str = private unnamed_addr constant [33 x i8] c"Integer multiplication overflow.\00", align 1
@_ZTIN7Iex_3_411OverflowExcE = external constant ptr

; Function Attrs: mustprogress nounwind uwtable
define linkonce_odr hidden noundef i64 @_ZNSt14numeric_limitsImE3maxEv() #4 comdat align 2 {
  ret i64 -1
}

; Function Attrs: mustprogress nounwind uwtable
define linkonce_odr hidden noundef i32 @_ZNSt14numeric_limitsIjE3maxEv() #4 comdat align 2 {
  ret i32 -1
}

; Function Attrs: mustprogress nounwind uwtable
define linkonce_odr hidden void @_ZN7Imf_3_411PreviewRgbaC2Ehhhh(ptr noundef nonnull align 1 dereferenceable(4) %0, i8 noundef zeroext %1, i8 noundef zeroext %2, i8 noundef zeroext %3, i8 noundef zeroext %4) unnamed_addr #4 comdat align 2 {
  %6 = alloca ptr, align 8
  %7 = alloca i8, align 1
  %8 = alloca i8, align 1
  %9 = alloca i8, align 1
  %10 = alloca i8, align 1
  store ptr %0, ptr %6, align 8, !tbaa !10
  store i8 %1, ptr %7, align 1, !tbaa !17
  store i8 %2, ptr %8, align 1, !tbaa !17
  store i8 %3, ptr %9, align 1, !tbaa !17
  store i8 %4, ptr %10, align 1, !tbaa !17
  %11 = load ptr, ptr %6, align 8
  %12 = getelementptr inbounds nuw %"struct.Imf_3_4::PreviewRgba", ptr %11, i32 0, i32 0
  %13 = load i8, ptr %7, align 1, !tbaa !17
  store i8 %13, ptr %12, align 1, !tbaa !23
  %14 = getelementptr inbounds nuw %"struct.Imf_3_4::PreviewRgba", ptr %11, i32 0, i32 1
  %15 = load i8, ptr %8, align 1, !tbaa !17
  store i8 %15, ptr %14, align 1, !tbaa !25
  %16 = getelementptr inbounds nuw %"struct.Imf_3_4::PreviewRgba", ptr %11, i32 0, i32 2
  %17 = load i8, ptr %9, align 1, !tbaa !17
  store i8 %17, ptr %16, align 1, !tbaa !26
  %18 = getelementptr inbounds nuw %"struct.Imf_3_4::PreviewRgba", ptr %11, i32 0, i32 3
  %19 = load i8, ptr %10, align 1, !tbaa !17
  store i8 %19, ptr %18, align 1, !tbaa !27
  ret void
}

; Function Attrs: inlinehint mustprogress uwtable
define linkonce_odr hidden noundef i64 @_ZN7Imf_3_414checkArraySizeIjEEmT_m(i32 noundef %0, i64 noundef %1) #1 comdat personality ptr @__gxx_personality_v0 {
  %3 = alloca i32, align 4
  %4 = alloca i64, align 8
  %5 = alloca ptr, align 8
  %6 = alloca i32, align 4
  store i32 %0, ptr %3, align 4, !tbaa !8
  store i64 %1, ptr %4, align 8, !tbaa !21
  br label %7

7:                                                ; preds = %2
  br label %8

8:                                                ; preds = %7
  br label %9

9:                                                ; preds = %8
  br label %10

10:                                               ; preds = %9
  %11 = load i32, ptr %3, align 4, !tbaa !8
  %12 = zext i32 %11 to i64
  %13 = call noundef i64 @_ZNSt14numeric_limitsImE3maxEv() #11
  %14 = load i64, ptr %4, align 8, !tbaa !21
  %15 = udiv i64 %13, %14
  %16 = icmp ugt i64 %12, %15
  br i1 %16, label %17, label %24

17:                                               ; preds = %10
  %18 = call ptr @__cxa_allocate_exception(i64 72) #11
  invoke void @_ZN7Iex_3_411OverflowExcC1EPKc(ptr noundef nonnull align 8 dereferenceable(72) %18, ptr noundef @.str)
          to label %19 unwind label %20

19:                                               ; preds = %17
  call void @__cxa_throw(ptr %18, ptr @_ZTIN7Iex_3_411OverflowExcE, ptr @_ZN7Iex_3_411OverflowExcD1Ev) #13
  unreachable

20:                                               ; preds = %17
  %21 = landingpad { ptr, i32 }
          cleanup
  %22 = extractvalue { ptr, i32 } %21, 0
  store ptr %22, ptr %5, align 8
  %23 = extractvalue { ptr, i32 } %21, 1
  store i32 %23, ptr %6, align 4
  call void @__cxa_free_exception(ptr %18) #11
  br label %27

24:                                               ; preds = %10
  %25 = load i32, ptr %3, align 4, !tbaa !8
  %26 = zext i32 %25 to i64
  ret i64 %26

27:                                               ; preds = %20
  %28 = load ptr, ptr %5, align 8
  %29 = load i32, ptr %6, align 4
  %30 = insertvalue { ptr, i32 } poison, ptr %28, 0
  %31 = insertvalue { ptr, i32 } %30, i32 %29, 1
  resume { ptr, i32 } %31
}

; Function Attrs: inlinehint mustprogress uwtable
define linkonce_odr hidden noundef i32 @_ZN7Imf_3_46uiMultIjEET_S1_S1_(i32 noundef %0, i32 noundef %1) #1 comdat personality ptr @__gxx_personality_v0 {
  %3 = alloca i32, align 4
  %4 = alloca i32, align 4
  %5 = alloca ptr, align 8
  %6 = alloca i32, align 4
  store i32 %0, ptr %3, align 4, !tbaa !8
  store i32 %1, ptr %4, align 4, !tbaa !8
  br label %7

7:                                                ; preds = %2
  br label %8

8:                                                ; preds = %7
  %9 = load i32, ptr %3, align 4, !tbaa !8
  %10 = icmp ugt i32 %9, 0
  br i1 %10, label %11, label %24

11:                                               ; preds = %8
  %12 = load i32, ptr %4, align 4, !tbaa !8
  %13 = call noundef i32 @_ZNSt14numeric_limitsIjE3maxEv() #11
  %14 = load i32, ptr %3, align 4, !tbaa !8
  %15 = udiv i32 %13, %14
  %16 = icmp ugt i32 %12, %15
  br i1 %16, label %17, label %24

17:                                               ; preds = %11
  %18 = call ptr @__cxa_allocate_exception(i64 72) #11
  invoke void @_ZN7Iex_3_411OverflowExcC1EPKc(ptr noundef nonnull align 8 dereferenceable(72) %18, ptr noundef @.str)
          to label %19 unwind label %20

19:                                               ; preds = %17
  call void @__cxa_throw(ptr %18, ptr @_ZTIN7Iex_3_411OverflowExcE, ptr @_ZN7Iex_3_411OverflowExcD1Ev) #13
  unreachable

20:                                               ; preds = %17
  %21 = landingpad { ptr, i32 }
          cleanup
  %22 = extractvalue { ptr, i32 } %21, 0
  store ptr %22, ptr %5, align 8
  %23 = extractvalue { ptr, i32 } %21, 1
  store i32 %23, ptr %6, align 4
  call void @__cxa_free_exception(ptr %18) #11
  br label %28

24:                                               ; preds = %11, %8
  %25 = load i32, ptr %3, align 4, !tbaa !8
  %26 = load i32, ptr %4, align 4, !tbaa !8
  %27 = mul i32 %25, %26
  ret i32 %27

28:                                               ; preds = %20
  %29 = load ptr, ptr %5, align 8
  %30 = load i32, ptr %6, align 4
  %31 = insertvalue { ptr, i32 } poison, ptr %29, 0
  %32 = insertvalue { ptr, i32 } %31, i32 %30, 1
  resume { ptr, i32 } %32
}

; Function Attrs: mustprogress uwtable
define void @_ZN7Imf_3_412PreviewImageC2EjjPKNS_11PreviewRgbaE(ptr noundef nonnull align 8 dereferenceable(16) %0, i32 noundef %1, i32 noundef %2, ptr noundef %3) unnamed_addr #0 align 2 personality ptr @__gxx_personality_v0 {
  %5 = alloca ptr, align 8
  %6 = alloca i32, align 4
  %7 = alloca i32, align 4
  %8 = alloca ptr, align 8
  %9 = alloca ptr, align 8
  %10 = alloca i32, align 4
  %11 = alloca i32, align 4
  %12 = alloca i32, align 4
  %13 = alloca %"struct.Imf_3_4::PreviewRgba", align 1
  store ptr %0, ptr %5, align 8, !tbaa !3
  store i32 %1, ptr %6, align 4, !tbaa !8
  store i32 %2, ptr %7, align 4, !tbaa !8
  store ptr %3, ptr %8, align 8, !tbaa !10
  %14 = load ptr, ptr %5, align 8
  %15 = load i32, ptr %6, align 4, !tbaa !8
  %16 = getelementptr inbounds nuw %"class.Imf_3_4::PreviewImage", ptr %14, i32 0, i32 0
  store i32 %15, ptr %16, align 8, !tbaa !12
  %17 = load i32, ptr %7, align 4, !tbaa !8
  %18 = getelementptr inbounds nuw %"class.Imf_3_4::PreviewImage", ptr %14, i32 0, i32 1
  store i32 %17, ptr %18, align 4, !tbaa !14
  %19 = getelementptr inbounds nuw %"class.Imf_3_4::PreviewImage", ptr %14, i32 0, i32 0
  %20 = load i32, ptr %19, align 8, !tbaa !12
  %21 = getelementptr inbounds nuw %"class.Imf_3_4::PreviewImage", ptr %14, i32 0, i32 1
  %22 = load i32, ptr %21, align 4, !tbaa !14
  %23 = call noundef i32 @_ZN7Imf_3_46uiMultIjEET_S1_S1_(i32 noundef %20, i32 noundef %22)
  %24 = call noundef i64 @_ZN7Imf_3_414checkArraySizeIjEEmT_m(i32 noundef %23, i64 noundef 4)
  %25 = call { i64, i1 } @llvm.umul.with.overflow.i64(i64 %24, i64 4)
  %26 = extractvalue { i64, i1 } %25, 1
  %27 = extractvalue { i64, i1 } %25, 0
  %28 = select i1 %26, i64 -1, i64 %27
  %29 = call noalias noundef nonnull ptr @_Znam(i64 noundef %28) #10
  %30 = icmp eq i64 %24, 0
  br i1 %30, label %38, label %31

31:                                               ; preds = %4
  %32 = getelementptr inbounds %"struct.Imf_3_4::PreviewRgba", ptr %29, i64 %24
  br label %33

33:                                               ; preds = %35, %31
  %34 = phi ptr [ %29, %31 ], [ %36, %35 ]
  invoke void @_ZN7Imf_3_411PreviewRgbaC2Ehhhh(ptr noundef nonnull align 1 dereferenceable(4) %34, i8 noundef zeroext 0, i8 noundef zeroext 0, i8 noundef zeroext 0, i8 noundef zeroext -1)
          to label %35 unwind label %52

35:                                               ; preds = %33
  %36 = getelementptr inbounds %"struct.Imf_3_4::PreviewRgba", ptr %34, i64 1
  %37 = icmp eq ptr %36, %32
  br i1 %37, label %38, label %33

38:                                               ; preds = %4, %35
  %39 = getelementptr inbounds nuw %"class.Imf_3_4::PreviewImage", ptr %14, i32 0, i32 2
  store ptr %29, ptr %39, align 8, !tbaa !15
  %40 = load ptr, ptr %8, align 8, !tbaa !10
  %41 = icmp ne ptr %40, null
  br i1 %41, label %42, label %70

42:                                               ; preds = %38
  call void @llvm.lifetime.start.p0(i64 4, ptr %11) #11
  store i32 0, ptr %11, align 4, !tbaa !8
  br label %43

43:                                               ; preds = %66, %42
  %44 = load i32, ptr %11, align 4, !tbaa !8
  %45 = getelementptr inbounds nuw %"class.Imf_3_4::PreviewImage", ptr %14, i32 0, i32 0
  %46 = load i32, ptr %45, align 8, !tbaa !12
  %47 = getelementptr inbounds nuw %"class.Imf_3_4::PreviewImage", ptr %14, i32 0, i32 1
  %48 = load i32, ptr %47, align 4, !tbaa !14
  %49 = mul i32 %46, %48
  %50 = icmp ult i32 %44, %49
  br i1 %50, label %56, label %51

51:                                               ; preds = %43
  call void @llvm.lifetime.end.p0(i64 4, ptr %11) #11
  br label %69

52:                                               ; preds = %33
  %53 = landingpad { ptr, i32 }
          cleanup
  %54 = extractvalue { ptr, i32 } %53, 0
  store ptr %54, ptr %9, align 8
  %55 = extractvalue { ptr, i32 } %53, 1
  store i32 %55, ptr %10, align 4
  call void @_ZdaPvm(ptr noundef %29, i64 noundef %28) #12
  br label %91

56:                                               ; preds = %43
  %57 = load ptr, ptr %8, align 8, !tbaa !10
  %58 = load i32, ptr %11, align 4, !tbaa !8
  %59 = zext i32 %58 to i64
  %60 = getelementptr inbounds nuw %"struct.Imf_3_4::PreviewRgba", ptr %57, i64 %59
  %61 = getelementptr inbounds nuw %"class.Imf_3_4::PreviewImage", ptr %14, i32 0, i32 2
  %62 = load ptr, ptr %61, align 8, !tbaa !15
  %63 = load i32, ptr %11, align 4, !tbaa !8
  %64 = zext i32 %63 to i64
  %65 = getelementptr inbounds nuw %"struct.Imf_3_4::PreviewRgba", ptr %62, i64 %64
  call void @llvm.memcpy.p0.p0.i64(ptr align 1 %65, ptr align 1 %60, i64 4, i1 false), !tbaa.struct !16
  br label %66

66:                                               ; preds = %56
  %67 = load i32, ptr %11, align 4, !tbaa !8
  %68 = add i32 %67, 1
  store i32 %68, ptr %11, align 4, !tbaa !8
  br label %43, !llvm.loop !18

69:                                               ; preds = %51
  br label %90

70:                                               ; preds = %38
  call void @llvm.lifetime.start.p0(i64 4, ptr %12) #11
  store i32 0, ptr %12, align 4, !tbaa !8
  br label %71

71:                                               ; preds = %86, %70
  %72 = load i32, ptr %12, align 4, !tbaa !8
  %73 = getelementptr inbounds nuw %"class.Imf_3_4::PreviewImage", ptr %14, i32 0, i32 0
  %74 = load i32, ptr %73, align 8, !tbaa !12
  %75 = getelementptr inbounds nuw %"class.Imf_3_4::PreviewImage", ptr %14, i32 0, i32 1
  %76 = load i32, ptr %75, align 4, !tbaa !14
  %77 = mul i32 %74, %76
  %78 = icmp ult i32 %72, %77
  br i1 %78, label %80, label %79

79:                                               ; preds = %71
  call void @llvm.lifetime.end.p0(i64 4, ptr %12) #11
  br label %89

80:                                               ; preds = %71
  call void @llvm.lifetime.start.p0(i64 4, ptr %13) #11
  call void @_ZN7Imf_3_411PreviewRgbaC2Ehhhh(ptr noundef nonnull align 1 dereferenceable(4) %13, i8 noundef zeroext 0, i8 noundef zeroext 0, i8 noundef zeroext 0, i8 noundef zeroext -1)
  %81 = getelementptr inbounds nuw %"class.Imf_3_4::PreviewImage", ptr %14, i32 0, i32 2
  %82 = load ptr, ptr %81, align 8, !tbaa !15
  %83 = load i32, ptr %12, align 4, !tbaa !8
  %84 = zext i32 %83 to i64
  %85 = getelementptr inbounds nuw %"struct.Imf_3_4::PreviewRgba", ptr %82, i64 %84
  call void @llvm.memcpy.p0.p0.i64(ptr align 1 %85, ptr align 1 %13, i64 4, i1 false), !tbaa.struct !16
  call void @llvm.lifetime.end.p0(i64 4, ptr %13) #11
  br label %86

86:                                               ; preds = %80
  %87 = load i32, ptr %12, align 4, !tbaa !8
  %88 = add i32 %87, 1
  store i32 %88, ptr %12, align 4, !tbaa !8
  br label %71, !llvm.loop !20

89:                                               ; preds = %79
  br label %90

90:                                               ; preds = %89, %69
  ret void

91:                                               ; preds = %52
  %92 = load ptr, ptr %9, align 8
  %93 = load i32, ptr %10, align 4
  %94 = insertvalue { ptr, i32 } poison, ptr %92, 0
  %95 = insertvalue { ptr, i32 } %94, i32 %93, 1
  resume { ptr, i32 } %95
}