; Function Attrs: mustprogress uwtable
define void @_ZN7Imf_3_412PreviewImageC2EjjPKNS_11PreviewRgbaE(ptr noundef nonnull align 8 captures(none) dereferenceable(16) initializes((0, 8)) %0, i32 noundef %1, i32 noundef %2, ptr noundef readonly %3) unnamed_addr #0 align 2 personality ptr @__gxx_personality_v0 {
  store i32 %1, ptr %0, align 8, !tbaa !3
  %5 = getelementptr inbounds nuw i8, ptr %0, i64 4
  store i32 %2, ptr %5, align 4, !tbaa !10
  %.not.i = icmp eq i32 %1, 0
  br i1 %.not.i, label %_ZN7Imf_3_46uiMultIjEET_S1_S1_.exit, label %6

6:                                                ; preds = %4
  %mul.i = tail call { i32, i1 } @llvm.umul.with.overflow.i32(i32 %1, i32 %2)
  %mul.ov.i = extractvalue { i32, i1 } %mul.i, 1
  br i1 %mul.ov.i, label %7, label %_ZN7Imf_3_46uiMultIjEET_S1_S1_.exit

7:                                                ; preds = %6
  %8 = tail call ptr @__cxa_allocate_exception(i64 72) #8
  invoke void @_ZN7Iex_3_411OverflowExcC1EPKc(ptr noundef nonnull align 8 dereferenceable(72) %8, ptr noundef nonnull @.str)
          to label %9 unwind label %common.resume

9:                                                ; preds = %7
  tail call void @__cxa_throw(ptr nonnull %8, ptr nonnull @_ZTIN7Iex_3_411OverflowExcE, ptr nonnull @_ZN7Iex_3_411OverflowExcD1Ev) #9
  unreachable

common.resume:                                    ; preds = %7
  %10 = landingpad { ptr, i32 }
          cleanup
  tail call void @__cxa_free_exception(ptr nonnull %8) #8
  resume { ptr, i32 } %10

_ZN7Imf_3_46uiMultIjEET_S1_S1_.exit:              ; preds = %4, %6
  %11 = mul i32 %2, %1
  %12 = zext i32 %11 to i64
  %13 = shl nuw nsw i64 %12, 2
  %14 = tail call noalias noundef nonnull ptr @_Znam(i64 noundef %13) #10
  %15 = icmp eq i32 %11, 0
  br i1 %15, label %.loopexit19, label %16

16:                                               ; preds = %_ZN7Imf_3_46uiMultIjEET_S1_S1_.exit
  %17 = getelementptr inbounds nuw %"struct.Imf_3_4::PreviewRgba", ptr %14, i64 %12
  br label %18

18:                                               ; preds = %18, %16
  %19 = phi ptr [ %14, %16 ], [ %23, %18 ]
  store i8 0, ptr %19, align 1, !tbaa !11
  %20 = getelementptr inbounds nuw i8, ptr %19, i64 1
  store i8 0, ptr %20, align 1, !tbaa !13
  %21 = getelementptr inbounds nuw i8, ptr %19, i64 2
  store i8 0, ptr %21, align 1, !tbaa !14
  %22 = getelementptr inbounds nuw i8, ptr %19, i64 3
  store i8 -1, ptr %22, align 1, !tbaa !15
  %23 = getelementptr inbounds nuw i8, ptr %19, i64 4
  %24 = icmp eq ptr %23, %17
  br i1 %24, label %.loopexit19.thread, label %18

.loopexit19:                                      ; preds = %_ZN7Imf_3_46uiMultIjEET_S1_S1_.exit
  %25 = getelementptr inbounds nuw i8, ptr %0, i64 8
  store ptr %14, ptr %25, align 8, !tbaa !16
  br label %.loopexit

.loopexit19.thread:                               ; preds = %18
  %26 = getelementptr inbounds nuw i8, ptr %0, i64 8
  store ptr %14, ptr %26, align 8, !tbaa !16
  %.not30 = icmp eq ptr %3, null
  br i1 %.not30, label %.lr.ph22, label %.lr.ph

.lr.ph:                                           ; preds = %.loopexit19.thread, %.lr.ph
  %indvars.iv = phi i64 [ %indvars.iv.next, %.lr.ph ], [ 0, %.loopexit19.thread ]
  %27 = getelementptr inbounds nuw %"struct.Imf_3_4::PreviewRgba", ptr %3, i64 %indvars.iv
  %28 = load ptr, ptr %26, align 8, !tbaa !16
  %29 = getelementptr inbounds nuw %"struct.Imf_3_4::PreviewRgba", ptr %28, i64 %indvars.iv
  %30 = load i32, ptr %27, align 1
  store i32 %30, ptr %29, align 1
  %indvars.iv.next = add nuw nsw i64 %indvars.iv, 1
  %31 = load i32, ptr %0, align 8, !tbaa !3
  %32 = load i32, ptr %5, align 4, !tbaa !10
  %33 = mul i32 %32, %31
  %34 = zext i32 %33 to i64
  %35 = icmp samesign ult i64 %indvars.iv.next, %34
  br i1 %35, label %.lr.ph, label %.loopexit, !llvm.loop !17

.lr.ph22:                                         ; preds = %.loopexit19.thread, %.lr.ph22
  %indvars.iv27 = phi i64 [ %indvars.iv.next28, %.lr.ph22 ], [ 0, %.loopexit19.thread ]
  %36 = load ptr, ptr %26, align 8, !tbaa !16
  %37 = getelementptr inbounds nuw %"struct.Imf_3_4::PreviewRgba", ptr %36, i64 %indvars.iv27
  store i32 -16777216, ptr %37, align 1
  %indvars.iv.next28 = add nuw nsw i64 %indvars.iv27, 1
  %38 = load i32, ptr %0, align 8, !tbaa !3
  %39 = load i32, ptr %5, align 4, !tbaa !10
  %40 = mul i32 %39, %38
  %41 = zext i32 %40 to i64
  %42 = icmp samesign ult i64 %indvars.iv.next28, %41
  br i1 %42, label %.lr.ph22, label %.loopexit, !llvm.loop !19

.loopexit:                                        ; preds = %.lr.ph, %.lr.ph22, %.loopexit19
  ret void
}